Certificate:
    Data:
        Version: 3 (0x2)
        Serial Number: 412618253 (0x18980e0d)
        Signature Algorithm: sha1WithRSAEncryption
        Issuer: OU=IP Camera, CN=Product Root CA
        Validity
            Not Before: Jan 16 00:00:00 2013 GMT
            Not After : Jan 16 00:00:00 2016 GMT
        Subject: O=Product Root CA, OU=IP Camera, CN=0.0.0.0
        Subject Public Key Info:
            Public Key Algorithm: rsaEncryption
                Public-Key: (1024 bit)
                Modulus:
                    00:a6:99:c6:88:5b:11:86:19:3d:de:5e:ed:64:f8:
                    7a:a4:40:c1:25:32:81:00:75:65:c1:84:b1:e6:c2:
                    ad:7c:2e:f4:e1:7d:4e:d0:37:1a:ad:c5:c1:78:ac:
                    d1:b8:25:da:06:7f:ed:3f:b1:fe:12:2d:94:52:68:
                    d4:00:61:18:7c:10:72:cb:79:7a:52:17:ca:57:cd:
                    ec:82:d1:dd:03:a8:d5:ee:02:13:67:06:58:52:33:
                    51:30:37:3a:cb:fd:bf:34:3c:7d:09:de:a6:30:17:
                    17:55:66:80:9a:c0:bc:10:c5:a0:68:40:13:63:a8:
                    90:4c:3f:cd:c3:04:64:8a:ff
                Exponent: 65537 (0x10001)
        X509v3 extensions:
            X509v3 Basic Constraints: 
                CA:FALSE
            Netscape Comment: 
                "OpenSSL Generated Certificate"
            X509v3 Subject Key Identifier: 
                7A:44:AA:C6:5F:73:2A:3E:B5:B5:58:B3:AA:92:AA:30:A5:7D:62:77
            X509v3 Authority Key Identifier: 
                keyid:80:CD:82:78:87:6B:D5:64:AC:58:D8:FB:8A:8E:73:08:C9:0D:15:D2
                DirName:/OU=IP Camera/CN=Product Root CA
                serial:DD:E9:79:41:33:36:52:DE

            X509v3 Key Usage: 
                Digital Signature, Non Repudiation, Key Encipherment
    Signature Algorithm: sha1WithRSAEncryption
        45:c5:4f:1f:19:0d:1b:5f:9a:5d:47:81:c2:e3:76:dc:71:61:
        ef:f9:7b:93:1d:26:bb:88:5e:df:35:4e:2b:e8:7b:78:32:a1:
        ab:79:cb:4d:94:3d:19:ce:9f:71:82:0c:cd:a1:7b:e3:ed:22:
        89:79:2e:ed:7b:6c:3b:90:96:20:e8:1e:ee:8e:84:09:53:be:
        0a:3e:d0:15:2b:1f:34:48:cc:f5:94:15:f7:a1:19:20:3b:6a:
        d8:11:68:c7:72:4c:a7:0e:f0:e7:9e:90:ba:69:f9:9e:69:6a:
        19:be:f7:1d:b3:39:f7:e3:0b:e6:fd:63:6f:48:e8:4f:77:e2:
        aa:17
-----BEGIN CERTIFICATE-----
MIICsjCCAhugAwIBAgIEGJgODTANBgkqhkiG9w0BAQUFADAuMRIwEAYDVQQLEwlJ
UCBDYW1lcmExGDAWBgNVBAMTD1Byb2R1Y3QgUm9vdCBDQTAeFw0xMzAxMTYwMDAw
MDBaFw0xNjAxMTYwMDAwMDBaMEAxGDAWBgNVBAoTD1Byb2R1Y3QgUm9vdCBDQTES
MBAGA1UECxMJSVAgQ2FtZXJhMRAwDgYDVQQDEwcwLjAuMC4wMIGfMA0GCSqGSIb3
DQEBAQUAA4GNADCBiQKBgQCmmcaIWxGGGT3eXu1k+HqkQMElMoEAdWXBhLHmwq18
LvThfU7QNxqtxcF4rNG4JdoGf+0/sf4SLZRSaNQAYRh8EHLLeXpSF8pXzeyC0d0D
qNXuAhNnBlhSM1EwNzrL/b80PH0J3qYwFxdVZoCawLwQxaBoQBNjqJBMP83DBGSK
/wIDAQABo4HKMIHHMAkGA1UdEwQCMAAwLgYJYIZIAYb4QgENBCEWHyJPcGVuU1NM
IEdlbmVyYXRlZCBDZXJ0aWZpY2F0ZSIwHQYDVR0OBBYEFHpEqsZfcyo+tbVYs6qS
qjClfWJ3MF4GA1UdIwRXMFWAFIDNgniHa9VkrFjY+4qOcwjJDRXSoTKkMDAuMRIw
EAYDVQQLEwlJUCBDYW1lcmExGDAWBgNVBAMTD1Byb2R1Y3QgUm9vdCBDQYIJAN3p
eUEzNlLeMAsGA1UdDwQEAwIF4DANBgkqhkiG9w0BAQUFAAOBgQBFxU8fGQ0bX5pd
R4HC43bccWHv+XuTHSa7iF7fNU4r6Ht4MqGrectNlD0Zzp9xggzNoXvj7SKJeS7t
e2w7kJYg6B7ujoQJU74KPtAVKx80SMz1lBX3oRkgO2rYEWjHckynDvDnnpC6afme
aWoZvvcdszn34wvm/WNvSOhPd+KqFw==
-----END CERTIFICATE-----
